target datalayout = "e-m:e-p270:32:32-p271:32:32-p272:64:64-i64:64-i128:128-f80:128-n8:16:32:64-S128"
target triple = "x86_64-pc-linux-gnu"

%"class.clang::SourceRange" = type { %"class.clang::SourceLocation", %"class.clang::SourceLocation" }
%"class.clang::SourceLocation" = type { i32 }
%"class.llvm::SmallVectorBase" = type { ptr, i32, i32 }
%"class.clang::PreferredTypeBuilder" = type { i8, %"class.clang::SourceLocation", %"class.clang::QualType", %"class.llvm::function_ref" }
%"class.clang::QualType" = type { %"class.llvm::PointerIntPair" }
%"class.llvm::PointerIntPair" = type { %"struct.llvm::detail::PunnedPointer" }
%"struct.llvm::detail::PunnedPointer" = type { [8 x i8] }
%"class.llvm::function_ref" = type { ptr, i64 }
%"class.clang::Token" = type <{ i32, i32, ptr, i16, i16, [4 x i8] }>
%"class.clang::Parser" = type { %"class.clang::CodeCompletionHandler", ptr, %"class.clang::Token", %"class.clang::SourceLocation", %"class.clang::PreferredTypeBuilder", i16, i16, i16, i16, ptr, ptr, i32, [16 x ptr], ptr, ptr, ptr, ptr, ptr, ptr, ptr, ptr, ptr, ptr, ptr, ptr, ptr, ptr, ptr, ptr, ptr, ptr, ptr, ptr, ptr, ptr, ptr, ptr, ptr, ptr, ptr, ptr, ptr, ptr, ptr, ptr, ptr, ptr, ptr, %"class.llvm::SmallDenseMap", %"class.std::unique_ptr", %"class.std::unique_ptr", %"class.std::unique_ptr", %"class.std::unique_ptr", %"class.std::unique_ptr", %"class.std::unique_ptr", %"class.std::unique_ptr", %"class.std::unique_ptr", %"class.std::unique_ptr", %"class.std::unique_ptr", %"class.std::unique_ptr", %"class.std::unique_ptr", %"class.std::unique_ptr", %"class.std::unique_ptr", %"class.std::unique_ptr", %"class.std::unique_ptr", %"class.std::unique_ptr", %"class.std::unique_ptr", %"class.std::unique_ptr", %"class.std::unique_ptr", %"class.std::unique_ptr", %"class.std::unique_ptr", %"class.std::unique_ptr", %"class.std::unique_ptr", %"class.std::unique_ptr", %"class.std::unique_ptr", %"class.std::unique_ptr", %"class.std::unique_ptr", %"class.std::unique_ptr", %"class.std::unique_ptr", %"class.std::unique_ptr", %"class.std::unique_ptr", %"class.std::unique_ptr", %"class.std::unique_ptr", %"class.std::unique_ptr", %"class.std::unique_ptr", %"class.std::unique_ptr", %"class.std::unique_ptr", %"class.std::unique_ptr", %"class.std::unique_ptr", %"class.std::unique_ptr", %"class.std::unique_ptr", %"class.std::unique_ptr", %"class.std::unique_ptr", %"class.std::unique_ptr", %"class.std::unique_ptr", %"class.std::unique_ptr", %"class.std::unique_ptr", %"class.std::unique_ptr.2", i8, i8, i8, i8, i8, i8, i8, i32, i32, i32, %"class.clang::AttributeFactory", %"class.llvm::SmallVector.21", i8, %"class.llvm::SmallVector.26", %"struct.clang::Parser::AngleBracketTracker", i8, i8, %"class.clang::SourceLocation", %"class.clang::SourceLocation", %"class.std::stack", ptr, [9 x ptr] }
%"class.clang::CodeCompletionHandler" = type { ptr }
%"class.llvm::SmallDenseMap" = type { i32, i32, %"struct.llvm::AlignedCharArrayUnion" }
%"struct.llvm::AlignedCharArrayUnion" = type { [64 x i8] }
%"class.std::unique_ptr" = type { %"struct.std::__uniq_ptr_data" }
%"struct.std::__uniq_ptr_data" = type { %"class.std::__uniq_ptr_impl" }
%"class.std::__uniq_ptr_impl" = type { %"class.std::tuple" }
%"class.std::tuple" = type { %"struct.std::_Tuple_impl" }
%"struct.std::_Tuple_impl" = type { %"struct.std::_Head_base.1" }
%"struct.std::_Head_base.1" = type { ptr }
%"class.std::unique_ptr.2" = type { %"struct.std::__uniq_ptr_data.3" }
%"struct.std::__uniq_ptr_data.3" = type { %"class.std::__uniq_ptr_impl.4" }
%"class.std::__uniq_ptr_impl.4" = type { %"class.std::tuple.5" }
%"class.std::tuple.5" = type { %"struct.std::_Tuple_impl.6" }
%"struct.std::_Tuple_impl.6" = type { %"struct.std::_Head_base.9" }
%"struct.std::_Head_base.9" = type { ptr }
%"class.clang::AttributeFactory" = type { %"class.llvm::BumpPtrAllocatorImpl", %"class.llvm::SmallVector.16" }
%"class.llvm::BumpPtrAllocatorImpl" = type { ptr, ptr, %"class.llvm::SmallVector", %"class.llvm::SmallVector.11", i64, i64 }
%"class.llvm::SmallVector" = type { %"class.llvm::SmallVectorImpl", %"struct.llvm::SmallVectorStorage" }
%"class.llvm::SmallVectorImpl" = type { %"class.llvm::SmallVectorTemplateBase" }
%"class.llvm::SmallVectorTemplateBase" = type { %"class.llvm::SmallVectorTemplateCommon" }
%"class.llvm::SmallVectorTemplateCommon" = type { %"class.llvm::SmallVectorBase" }
%"struct.llvm::SmallVectorStorage" = type { [32 x i8] }
%"class.llvm::SmallVector.11" = type { %"class.llvm::SmallVectorImpl.12" }
%"class.llvm::SmallVectorImpl.12" = type { %"class.llvm::SmallVectorTemplateBase.13" }
%"class.llvm::SmallVectorTemplateBase.13" = type { %"class.llvm::SmallVectorTemplateCommon.14" }
%"class.llvm::SmallVectorTemplateCommon.14" = type { %"class.llvm::SmallVectorBase" }
%"class.llvm::SmallVector.16" = type { %"class.llvm::SmallVectorImpl.17", %"struct.llvm::SmallVectorStorage.20" }
%"class.llvm::SmallVectorImpl.17" = type { %"class.llvm::SmallVectorTemplateBase.18" }
%"class.llvm::SmallVectorTemplateBase.18" = type { %"class.llvm::SmallVectorTemplateCommon.19" }
%"class.llvm::SmallVectorTemplateCommon.19" = type { %"class.llvm::SmallVectorBase" }
%"struct.llvm::SmallVectorStorage.20" = type { [1200 x i8] }
%"class.llvm::SmallVector.21" = type { %"class.llvm::SmallVectorImpl.22", %"struct.llvm::SmallVectorStorage.25" }
%"class.llvm::SmallVectorImpl.22" = type { %"class.llvm::SmallVectorTemplateBase.23" }
%"class.llvm::SmallVectorTemplateBase.23" = type { %"class.llvm::SmallVectorTemplateCommon.24" }
%"class.llvm::SmallVectorTemplateCommon.24" = type { %"class.llvm::SmallVectorBase" }
%"struct.llvm::SmallVectorStorage.25" = type { [128 x i8] }
%"class.llvm::SmallVector.26" = type { %"class.llvm::SmallVectorImpl.27", %"struct.llvm::SmallVectorStorage.30" }
%"class.llvm::SmallVectorImpl.27" = type { %"class.llvm::SmallVectorTemplateBase.28" }
%"class.llvm::SmallVectorTemplateBase.28" = type { %"class.llvm::SmallVectorTemplateCommon.29" }
%"class.llvm::SmallVectorTemplateCommon.29" = type { %"class.llvm::SmallVectorBase" }
%"struct.llvm::SmallVectorStorage.30" = type { [64 x i8] }
%"struct.clang::Parser::AngleBracketTracker" = type { %"class.llvm::SmallVector.31" }
%"class.llvm::SmallVector.31" = type { %"class.llvm::SmallVectorImpl.32", %"struct.llvm::SmallVectorStorage.35" }
%"class.llvm::SmallVectorImpl.32" = type { %"class.llvm::SmallVectorTemplateBase.33" }
%"class.llvm::SmallVectorTemplateBase.33" = type { %"class.llvm::SmallVectorTemplateCommon.34" }
%"class.llvm::SmallVectorTemplateCommon.34" = type { %"class.llvm::SmallVectorBase" }
%"struct.llvm::SmallVectorStorage.35" = type { [192 x i8] }
%"class.std::stack" = type { %"class.std::deque" }
%"class.std::deque" = type { %"class.std::_Deque_base" }
%"class.std::_Deque_base" = type { %"struct.std::_Deque_base<clang::Parser::ParsingClass *, std::allocator<clang::Parser::ParsingClass *>>::_Deque_impl" }
%"struct.std::_Deque_base<clang::Parser::ParsingClass *, std::allocator<clang::Parser::ParsingClass *>>::_Deque_impl" = type { %"struct.std::_Deque_base<clang::Parser::ParsingClass *, std::allocator<clang::Parser::ParsingClass *>>::_Deque_impl_data" }
%"struct.std::_Deque_base<clang::Parser::ParsingClass *, std::allocator<clang::Parser::ParsingClass *>>::_Deque_impl_data" = type { ptr, i64, %"struct.std::_Deque_iterator", %"struct.std::_Deque_iterator" }
%"struct.std::_Deque_iterator" = type { ptr, ptr, ptr, ptr }
%"class.clang::AttributeCommonInfo::Form" = type { i16, [2 x i8] }

; Function Attrs: mustprogress nounwind uwtable
define linkonce_odr hidden noundef zeroext i1 @_ZN5clang3tok15isStringLiteralENS0_9TokenKindE(i16 noundef zeroext %0) #0 comdat {
  %2 = alloca i16, align 2
  store i16 %0, ptr %2, align 2
  %3 = load i16, ptr %2, align 2
  %4 = zext i16 %3 to i32
  %5 = icmp eq i32 %4, 14
  br i1 %5, label %22, label %6

6:                                                ; preds = %1
  %7 = load i16, ptr %2, align 2
  %8 = zext i16 %7 to i32
  %9 = icmp eq i32 %8, 15
  br i1 %9, label %22, label %10

10:                                               ; preds = %6
  %11 = load i16, ptr %2, align 2
  %12 = zext i16 %11 to i32
  %13 = icmp eq i32 %12, 17
  br i1 %13, label %22, label %14

14:                                               ; preds = %10
  %15 = load i16, ptr %2, align 2
  %16 = zext i16 %15 to i32
  %17 = icmp eq i32 %16, 18
  br i1 %17, label %22, label %18

18:                                               ; preds = %14
  %19 = load i16, ptr %2, align 2
  %20 = zext i16 %19 to i32
  %21 = icmp eq i32 %20, 19
  br label %22

22:                                               ; preds = %18, %14, %10, %6, %1
  %23 = phi i1 [ true, %14 ], [ true, %10 ], [ true, %6 ], [ true, %1 ], [ %21, %18 ]
  ret i1 %23
}

; Function Attrs: mustprogress nounwind uwtable
define linkonce_odr hidden i32 @_ZN5clang14SourceLocation18getFromRawEncodingEj(i32 noundef %0) #0 comdat align 2 {
  %2 = alloca %"class.clang::SourceLocation", align 4
  %3 = alloca i32, align 4
  store i32 %0, ptr %3, align 4
  call void @_ZN5clang14SourceLocationC2Ev(ptr noundef nonnull align 4 dereferenceable(4) %2) #11
  %4 = load i32, ptr %3, align 4
  %5 = getelementptr inbounds nuw %"class.clang::SourceLocation", ptr %2, i32 0, i32 0
  store i32 %4, ptr %5, align 4
  %6 = getelementptr inbounds nuw %"class.clang::SourceLocation", ptr %2, i32 0, i32 0
  %7 = load i32, ptr %6, align 4
  ret i32 %7
}

; Function Attrs: mustprogress nounwind uwtable
define linkonce_odr hidden noundef zeroext i1 @_ZN5clang3tok9isLiteralENS0_9TokenKindE(i16 noundef zeroext %0) #0 comdat {
  %2 = alloca i16, align 2
  store i16 %0, ptr %2, align 2
  %3 = load i16, ptr %2, align 2
  %4 = zext i16 %3 to i32
  %5 = icmp eq i32 %4, 7
  br i1 %5, label %37, label %6

6:                                                ; preds = %1
  %7 = load i16, ptr %2, align 2
  %8 = zext i16 %7 to i32
  %9 = icmp eq i32 %8, 9
  br i1 %9, label %37, label %10

10:                                               ; preds = %6
  %11 = load i16, ptr %2, align 2
  %12 = zext i16 %11 to i32
  %13 = icmp eq i32 %12, 10
  br i1 %13, label %37, label %14

14:                                               ; preds = %10
  %15 = load i16, ptr %2, align 2
  %16 = zext i16 %15 to i32
  %17 = icmp eq i32 %16, 11
  br i1 %17, label %37, label %18

18:                                               ; preds = %14
  %19 = load i16, ptr %2, align 2
  %20 = zext i16 %19 to i32
  %21 = icmp eq i32 %20, 12
  br i1 %21, label %37, label %22

22:                                               ; preds = %18
  %23 = load i16, ptr %2, align 2
  %24 = zext i16 %23 to i32
  %25 = icmp eq i32 %24, 13
  br i1 %25, label %37, label %26

26:                                               ; preds = %22
  %27 = load i16, ptr %2, align 2
  %28 = call noundef zeroext i1 @_ZN5clang3tok15isStringLiteralENS0_9TokenKindE(i16 noundef zeroext %27)
  br i1 %28, label %37, label %29

29:                                               ; preds = %26
  %30 = load i16, ptr %2, align 2
  %31 = zext i16 %30 to i32
  %32 = icmp eq i32 %31, 16
  br i1 %32, label %37, label %33

33:                                               ; preds = %29
  %34 = load i16, ptr %2, align 2
  %35 = zext i16 %34 to i32
  %36 = icmp eq i32 %35, 8
  br label %37

37:                                               ; preds = %33, %29, %26, %22, %18, %14, %10, %6, %1
  %38 = phi i1 [ true, %29 ], [ true, %26 ], [ true, %22 ], [ true, %18 ], [ true, %14 ], [ true, %10 ], [ true, %6 ], [ true, %1 ], [ %36, %33 ]
  ret i1 %38
}

; Function Attrs: mustprogress nounwind uwtable
define linkonce_odr hidden noundef zeroext i1 @_ZN5clang3tok25isRegularKeywordAttributeENS0_9TokenKindE(i16 noundef zeroext %0) #0 comdat {
  %2 = alloca i16, align 2
  store i16 %0, ptr %2, align 2
  %3 = load i16, ptr %2, align 2
  %4 = zext i16 %3 to i32
  %5 = icmp eq i32 %4, 402
  br i1 %5, label %34, label %6

6:                                                ; preds = %1
  %7 = load i16, ptr %2, align 2
  %8 = zext i16 %7 to i32
  %9 = icmp eq i32 %8, 403
  br i1 %9, label %34, label %10

10:                                               ; preds = %6
  %11 = load i16, ptr %2, align 2
  %12 = zext i16 %11 to i32
  %13 = icmp eq i32 %12, 404
  br i1 %13, label %34, label %14

14:                                               ; preds = %10
  %15 = load i16, ptr %2, align 2
  %16 = zext i16 %15 to i32
  %17 = icmp eq i32 %16, 405
  br i1 %17, label %34, label %18

18:                                               ; preds = %14
  %19 = load i16, ptr %2, align 2
  %20 = zext i16 %19 to i32
  %21 = icmp eq i32 %20, 406
  br i1 %21, label %34, label %22

22:                                               ; preds = %18
  %23 = load i16, ptr %2, align 2
  %24 = zext i16 %23 to i32
  %25 = icmp eq i32 %24, 407
  br i1 %25, label %34, label %26

26:                                               ; preds = %22
  %27 = load i16, ptr %2, align 2
  %28 = zext i16 %27 to i32
  %29 = icmp eq i32 %28, 408
  br i1 %29, label %34, label %30

30:                                               ; preds = %26
  %31 = load i16, ptr %2, align 2
  %32 = zext i16 %31 to i32
  %33 = icmp eq i32 %32, 409
  br label %34

34:                                               ; preds = %30, %26, %22, %18, %14, %10, %6, %1
  %35 = phi i1 [ true, %26 ], [ true, %22 ], [ true, %18 ], [ true, %14 ], [ true, %10 ], [ true, %6 ], [ true, %1 ], [ %33, %30 ]
  ret i1 %35
}

; Function Attrs: mustprogress nounwind uwtable
define linkonce_odr hidden i32 @_ZNK5clang5Token11getLocationEv(ptr noundef nonnull align 8 dereferenceable(20) %0) #0 comdat align 2 {
  %2 = alloca %"class.clang::SourceLocation", align 4
  %3 = alloca ptr, align 8
  store ptr %0, ptr %3, align 8
  %4 = load ptr, ptr %3, align 8
  %5 = getelementptr inbounds nuw %"class.clang::Token", ptr %4, i32 0, i32 0
  %6 = load i32, ptr %5, align 8
  %7 = call i32 @_ZN5clang14SourceLocation18getFromRawEncodingEj(i32 noundef %6)
  %8 = getelementptr inbounds nuw %"class.clang::SourceLocation", ptr %2, i32 0, i32 0
  store i32 %7, ptr %8, align 4
  %9 = getelementptr inbounds nuw %"class.clang::SourceLocation", ptr %2, i32 0, i32 0
  %10 = load i32, ptr %9, align 4
  ret i32 %10
}

; Function Attrs: mustprogress nounwind uwtable
define linkonce_odr hidden noundef zeroext i1 @_ZNK5clang5Token9isLiteralEv(ptr noundef nonnull align 8 dereferenceable(20) %0) #0 comdat align 2 {
  %2 = alloca ptr, align 8
  store ptr %0, ptr %2, align 8
  %3 = load ptr, ptr %2, align 8
  %4 = call noundef zeroext i16 @_ZNK5clang5Token7getKindEv(ptr noundef nonnull align 8 dereferenceable(20) %3)
  %5 = call noundef zeroext i1 @_ZN5clang3tok9isLiteralENS0_9TokenKindE(i16 noundef zeroext %4)
  ret i1 %5
}

; Function Attrs: mustprogress nounwind uwtable
define linkonce_odr hidden void @_ZN5clang14SourceLocationC2Ev(ptr noundef nonnull align 4 dereferenceable(4) %0) unnamed_addr #0 comdat align 2 {
  %2 = alloca ptr, align 8
  store ptr %0, ptr %2, align 8
  %3 = load ptr, ptr %2, align 8
  %4 = getelementptr inbounds nuw %"class.clang::SourceLocation", ptr %3, i32 0, i32 0
  store i32 0, ptr %4, align 4
  ret void
}

; Function Attrs: mustprogress nounwind uwtable
define linkonce_odr hidden void @_ZN5clang19AttributeCommonInfo4FormC2ENS_3tok9TokenKindE(ptr noundef nonnull align 4 dereferenceable(2) %0, i16 noundef zeroext %1) unnamed_addr #0 comdat align 2 {
  %3 = alloca ptr, align 8
  %4 = alloca i16, align 2
  store ptr %0, ptr %3, align 8
  store i16 %1, ptr %4, align 2
  %5 = load ptr, ptr %3, align 8
  %6 = load i16, ptr %5, align 4
  %7 = and i16 %6, -16
  %8 = or i16 %7, 6
  store i16 %8, ptr %5, align 4
  %9 = load i16, ptr %5, align 4
  %10 = and i16 %9, -241
  %11 = or i16 %10, 240
  store i16 %11, ptr %5, align 4
  %12 = load i16, ptr %4, align 2
  %13 = zext i16 %12 to i32
  %14 = icmp eq i32 %13, 157
  %15 = zext i1 %14 to i32
  %16 = trunc i32 %15 to i16
  %17 = load i16, ptr %5, align 4
  %18 = and i16 %16, 1
  %19 = shl i16 %18, 8
  %20 = and i16 %17, -257
  %21 = or i16 %20, %19
  store i16 %21, ptr %5, align 4
  %22 = load i16, ptr %4, align 2
  %23 = call noundef zeroext i1 @_ZN5clang3tok25isRegularKeywordAttributeENS0_9TokenKindE(i16 noundef zeroext %22)
  %24 = zext i1 %23 to i32
  %25 = trunc i32 %24 to i16
  %26 = load i16, ptr %5, align 4
  %27 = and i16 %25, 1
  %28 = shl i16 %27, 9
  %29 = and i16 %26, -513
  %30 = or i16 %29, %28
  store i16 %30, ptr %5, align 4
  ret void
}

; Function Attrs: mustprogress nounwind uwtable
define linkonce_odr hidden void @_ZN5clang11SourceRangeC2ENS_14SourceLocationE(ptr noundef nonnull align 4 dereferenceable(8) %0, i32 %1) unnamed_addr #0 comdat align 2 {
  %3 = alloca %"class.clang::SourceLocation", align 4
  %4 = alloca ptr, align 8
  %5 = getelementptr inbounds nuw %"class.clang::SourceLocation", ptr %3, i32 0, i32 0
  store i32 %1, ptr %5, align 4
  store ptr %0, ptr %4, align 8
  %6 = load ptr, ptr %4, align 8
  %7 = getelementptr inbounds nuw %"class.clang::SourceRange", ptr %6, i32 0, i32 0
  call void @llvm.memcpy.p0.p0.i64(ptr align 4 %7, ptr align 4 %3, i64 4, i1 false)
  %8 = getelementptr inbounds nuw %"class.clang::SourceRange", ptr %6, i32 0, i32 1
  call void @llvm.memcpy.p0.p0.i64(ptr align 4 %8, ptr align 4 %3, i64 4, i1 false)
  ret void
}

; Function Attrs: mustprogress nounwind uwtable
define linkonce_odr hidden i32 @_ZN5clang6Parser12ConsumeTokenEv(ptr noundef nonnull align 8 dereferenceable(2936) %0) #0 comdat align 2 {
  %2 = alloca %"class.clang::SourceLocation", align 4
  %3 = alloca ptr, align 8
  %4 = alloca %"class.clang::SourceLocation", align 4
  store ptr %0, ptr %3, align 8
  %5 = load ptr, ptr %3, align 8
  %6 = getelementptr inbounds nuw %"class.clang::Parser", ptr %5, i32 0, i32 2
  %7 = call i32 @_ZNK5clang5Token11getLocationEv(ptr noundef nonnull align 8 dereferenceable(20) %6)
  %8 = getelementptr inbounds nuw %"class.clang::SourceLocation", ptr %4, i32 0, i32 0
  store i32 %7, ptr %8, align 4
  %9 = getelementptr inbounds nuw %"class.clang::Parser", ptr %5, i32 0, i32 3
  call void @llvm.memcpy.p0.p0.i64(ptr align 8 %9, ptr align 4 %4, i64 4, i1 false)
  %10 = getelementptr inbounds nuw %"class.clang::Parser", ptr %5, i32 0, i32 1
  %11 = load ptr, ptr %10, align 8
  %12 = getelementptr inbounds nuw %"class.clang::Parser", ptr %5, i32 0, i32 2
  call void @_ZN5clang12Preprocessor3LexERNS_5TokenE(ptr noundef nonnull align 8 dereferenceable(3288) %11, ptr noundef nonnull align 8 dereferenceable(20) %12)
  %13 = getelementptr inbounds nuw %"class.clang::Parser", ptr %5, i32 0, i32 3
  call void @llvm.memcpy.p0.p0.i64(ptr align 4 %2, ptr align 8 %13, i64 4, i1 false)
  %14 = getelementptr inbounds nuw %"class.clang::SourceLocation", ptr %2, i32 0, i32 0
  %15 = load i32, ptr %14, align 4
  ret i32 %15
}

; Function Attrs: mustprogress nounwind uwtable
define linkonce_odr hidden noundef zeroext i16 @_ZNK5clang5Token7getKindEv(ptr noundef nonnull align 8 dereferenceable(20) %0) #0 comdat align 2 {
  %2 = alloca ptr, align 8
  store ptr %0, ptr %2, align 8
  %3 = load ptr, ptr %2, align 8
  %4 = getelementptr inbounds nuw %"class.clang::Token", ptr %3, i32 0, i32 3
  %5 = load i16, ptr %4, align 8
  ret i16 %5
}

; Function Attrs: mustprogress nounwind uwtable
define linkonce_odr hidden noundef ptr @_ZNK5clang5Token17getIdentifierInfoEv(ptr noundef nonnull align 8 dereferenceable(20) %0) #0 comdat align 2 {
  %2 = alloca ptr, align 8
  %3 = alloca ptr, align 8
  store ptr %0, ptr %3, align 8
  %4 = load ptr, ptr %3, align 8
  %5 = call noundef zeroext i1 @_ZNK5clang5Token9isLiteralEv(ptr noundef nonnull align 8 dereferenceable(20) %4)
  br i1 %5, label %6, label %7

6:                                                ; preds = %1
  store ptr null, ptr %2, align 8
  br label %13

7:                                                ; preds = %1
  %8 = call noundef zeroext i1 @_ZNK5clang5Token2isENS_3tok9TokenKindE(ptr noundef nonnull align 8 dereferenceable(20) %4, i16 noundef zeroext 1)
  br i1 %8, label %9, label %10

9:                                                ; preds = %7
  store ptr null, ptr %2, align 8
  br label %13

10:                                               ; preds = %7
  %11 = getelementptr inbounds nuw %"class.clang::Token", ptr %4, i32 0, i32 2
  %12 = load ptr, ptr %11, align 8
  store ptr %12, ptr %2, align 8
  br label %13

13:                                               ; preds = %10, %9, %6
  %14 = load ptr, ptr %2, align 8
  ret ptr %14
}

; Function Attrs: mustprogress nounwind uwtable
define linkonce_odr hidden noundef zeroext i1 @_ZNK5clang5Token2isENS_3tok9TokenKindE(ptr noundef nonnull align 8 dereferenceable(20) %0, i16 noundef zeroext %1) #0 comdat align 2 {
  %3 = alloca ptr, align 8
  %4 = alloca i16, align 2
  store ptr %0, ptr %3, align 8
  store i16 %1, ptr %4, align 2
  %5 = load ptr, ptr %3, align 8
  %6 = getelementptr inbounds nuw %"class.clang::Token", ptr %5, i32 0, i32 3
  %7 = load i16, ptr %6, align 8
  %8 = zext i16 %7 to i32
  %9 = load i16, ptr %4, align 2
  %10 = zext i16 %9 to i32
  %11 = icmp eq i32 %8, %10
  ret i1 %11
}

; Function Attrs: mustprogress nounwind uwtable
define dso_local void @_ZN5clang6Parser31ParseNullabilityClassAttributesERNS_16ParsedAttributesE(ptr noundef nonnull align 8 dereferenceable(2936) %0, ptr noundef nonnull align 8 dereferenceable(144) %1) #0 align 2 {
  %3 = alloca ptr, align 8
  %4 = alloca ptr, align 8
  %5 = alloca ptr, align 8
  %6 = alloca i16, align 2
  %7 = alloca %"class.clang::SourceLocation", align 4
  %8 = alloca %"class.clang::SourceRange", align 4
  %9 = alloca %"class.clang::SourceLocation", align 4
  %10 = alloca %"class.clang::SourceLocation", align 4
  %11 = alloca %"class.clang::AttributeCommonInfo::Form", align 4
  %12 = alloca %"class.clang::SourceLocation", align 4
  store ptr %0, ptr %3, align 8
  store ptr %1, ptr %4, align 8
  %13 = load ptr, ptr %3, align 8
  br label %14

14:                                               ; preds = %17, %2
  %15 = getelementptr inbounds nuw %"class.clang::Parser", ptr %13, i32 0, i32 2
  %16 = call noundef zeroext i1 @_ZNK5clang5Token2isENS_3tok9TokenKindE(ptr noundef nonnull align 8 dereferenceable(20) %15, i16 noundef zeroext 377)
  br i1 %16, label %17, label %36

17:                                               ; preds = %14
  %18 = getelementptr inbounds nuw %"class.clang::Parser", ptr %13, i32 0, i32 2
  %19 = call noundef ptr @_ZNK5clang5Token17getIdentifierInfoEv(ptr noundef nonnull align 8 dereferenceable(20) %18)
  store ptr %19, ptr %5, align 8
  %20 = getelementptr inbounds nuw %"class.clang::Parser", ptr %13, i32 0, i32 2
  %21 = call noundef zeroext i16 @_ZNK5clang5Token7getKindEv(ptr noundef nonnull align 8 dereferenceable(20) %20)
  store i16 %21, ptr %6, align 2
  %22 = call i32 @_ZN5clang6Parser12ConsumeTokenEv(ptr noundef nonnull align 8 dereferenceable(2936) %13)
  %23 = getelementptr inbounds nuw %"class.clang::SourceLocation", ptr %7, i32 0, i32 0
  store i32 %22, ptr %23, align 4
  %24 = load ptr, ptr %4, align 8
  %25 = load ptr, ptr %5, align 8
  call void @llvm.memcpy.p0.p0.i64(ptr align 4 %9, ptr align 4 %7, i64 4, i1 false)
  %26 = getelementptr inbounds nuw %"class.clang::SourceLocation", ptr %9, i32 0, i32 0
  %27 = load i32, ptr %26, align 4
  call void @_ZN5clang11SourceRangeC2ENS_14SourceLocationE(ptr noundef nonnull align 4 dereferenceable(8) %8, i32 %27)
  call void @llvm.memcpy.p0.p0.i64(ptr align 4 %10, ptr align 4 %7, i64 4, i1 false)
  %28 = load i16, ptr %6, align 2
  call void @_ZN5clang19AttributeCommonInfo4FormC2ENS_3tok9TokenKindE(ptr noundef nonnull align 4 dereferenceable(2) %11, i16 noundef zeroext %28)
  call void @llvm.memset.p0.i64(ptr align 4 %12, i8 0, i64 4, i1 false)
  call void @_ZN5clang14SourceLocationC2Ev(ptr noundef nonnull align 4 dereferenceable(4) %12) #11
  %29 = load i64, ptr %8, align 4
  %30 = getelementptr inbounds nuw %"class.clang::SourceLocation", ptr %10, i32 0, i32 0
  %31 = load i32, ptr %30, align 4
  %32 = load i32, ptr %11, align 4
  %33 = getelementptr inbounds nuw %"class.clang::SourceLocation", ptr %12, i32 0, i32 0
  %34 = load i32, ptr %33, align 4
  %35 = call noundef ptr @_ZN5clang16ParsedAttributes6addNewEPNS_14IdentifierInfoENS_11SourceRangeES2_NS_14SourceLocationEPN4llvm12PointerUnionIJPNS_4ExprEPNS_13IdentifierLocEEEEjNS_19AttributeCommonInfo4FormES4_(ptr noundef nonnull align 8 dereferenceable(144) %24, ptr noundef %25, i64 %29, ptr noundef null, i32 %31, ptr noundef null, i32 noundef 0, i32 %32, i32 %34)
  br label %14, !llvm.loop !20

36:                                               ; preds = %14
  ret void
}