; Function Attrs: mustprogress nounwind uwtable
define dso_local void @_ZN5clang6Parser31ParseNullabilityClassAttributesERNS_16ParsedAttributesE(ptr noundef nonnull align 8 dereferenceable(2936) %0, ptr noundef nonnull align 8 dereferenceable(144) %1) local_unnamed_addr #0 align 2 {
  %3 = getelementptr inbounds i8, ptr %0, i64 32
  %4 = load i16, ptr %3, align 8
  %5 = icmp eq i16 %4, 377
  br i1 %5, label %_ZNK5clang5Token17getIdentifierInfoEv.exit.lr.ph, label %._crit_edge

_ZNK5clang5Token17getIdentifierInfoEv.exit.lr.ph: ; preds = %2
  %6 = getelementptr inbounds nuw i8, ptr %0, i64 16
  %7 = getelementptr inbounds i8, ptr %0, i64 24
  %8 = getelementptr inbounds nuw i8, ptr %0, i64 40
  %9 = getelementptr inbounds nuw i8, ptr %0, i64 8
  br label %_ZNK5clang5Token17getIdentifierInfoEv.exit

_ZNK5clang5Token17getIdentifierInfoEv.exit:       ; preds = %_ZNK5clang5Token17getIdentifierInfoEv.exit.lr.ph, %_ZNK5clang5Token17getIdentifierInfoEv.exit
  %10 = load ptr, ptr %7, align 8
  %11 = load i32, ptr %6, align 8
  store i32 %11, ptr %8, align 8
  %12 = load ptr, ptr %9, align 8
  tail call void @_ZN5clang12Preprocessor3LexERNS_5TokenE(ptr noundef nonnull align 8 dereferenceable(3288) %12, ptr noundef nonnull align 8 dereferenceable(20) %6) #19
  %.sroa.01.0.copyload.i = load i32, ptr %8, align 8
  %.sroa.2.0.insert.ext = zext i32 %.sroa.01.0.copyload.i to i64
  %.sroa.2.0.insert.shift = shl nuw i64 %.sroa.2.0.insert.ext, 32
  %.sroa.08.0.insert.insert = or disjoint i64 %.sroa.2.0.insert.shift, %.sroa.2.0.insert.ext
  %13 = tail call noundef ptr @_ZN5clang16ParsedAttributes6addNewEPNS_14IdentifierInfoENS_11SourceRangeES2_NS_14SourceLocationEPN4llvm12PointerUnionIJPNS_4ExprEPNS_13IdentifierLocEEEEjNS_19AttributeCommonInfo4FormES4_(ptr noundef nonnull align 8 dereferenceable(144) %1, ptr noundef %10, i64 %.sroa.08.0.insert.insert, ptr noundef null, i32 %.sroa.01.0.copyload.i, ptr noundef null, i32 noundef 0, i32 246, i32 0)
  %14 = load i16, ptr %3, align 8
  %15 = icmp eq i16 %14, 377
  br i1 %15, label %_ZNK5clang5Token17getIdentifierInfoEv.exit, label %._crit_edge, !llvm.loop !133

._crit_edge:                                      ; preds = %_ZNK5clang5Token17getIdentifierInfoEv.exit, %2
  ret void
}